target datalayout = "e-m:e-p270:32:32-p271:32:32-p272:64:64-i64:64-i128:128-f80:128-n8:16:32:64-S128"
target triple = "x86_64-pc-linux-gnu"

%struct.Abc_Ntk_t_ = type { i32, i32, ptr, ptr, ptr, ptr, ptr, ptr, ptr, ptr, ptr, ptr, ptr, [11 x i32], i32, i32, i32, i32, ptr, i32, ptr, ptr, i32, i32, i32, double, i32, %struct.Vec_Int_t_, ptr, ptr, ptr, ptr, ptr, float, i32, ptr, ptr, ptr, ptr, ptr, ptr, ptr, ptr, ptr, ptr, ptr, ptr, ptr, ptr, ptr, ptr, ptr, ptr, ptr, ptr, ptr }
%struct.Vec_Int_t_ = type { i32, i32, ptr }
%struct.Vec_Ptr_t_ = type { i32, i32, ptr }
%struct.Abc_Obj_t_ = type { ptr, ptr, i32, i32, %struct.Vec_Int_t_, %struct.Vec_Int_t_, %union.anon, %union.anon.0 }
%union.anon = type { ptr }
%union.anon.0 = type { ptr }

@Io_NtkWriteNodeGate.fReport = internal global i32 0, align 4
@.str.17 = private unnamed_addr constant [7 x i8] c" %-*s \00", align 1
@.str.18 = private unnamed_addr constant [7 x i8] c"%s=%s \00", align 1
@.str.19 = private unnamed_addr constant [6 x i8] c"%s=%s\00", align 1
@.str.20 = private unnamed_addr constant [49 x i8] c"Warning: Missing second output of gate(s) \22%s\22.\0A\00", align 1
@.str.21 = private unnamed_addr constant [7 x i8] c" %s=%s\00", align 1

; Function Attrs: nounwind uwtable
define internal ptr @Abc_ObjFanout0(ptr noundef %0) #0 {
  %2 = alloca ptr, align 8
  store ptr %0, ptr %2, align 8
  %3 = load ptr, ptr %2, align 8
  %4 = getelementptr inbounds %struct.Abc_Obj_t_, ptr %3, i32 0, i32 0
  %5 = load ptr, ptr %4, align 8
  %6 = getelementptr inbounds %struct.Abc_Ntk_t_, ptr %5, i32 0, i32 5
  %7 = load ptr, ptr %6, align 8
  %8 = getelementptr inbounds %struct.Vec_Ptr_t_, ptr %7, i32 0, i32 2
  %9 = load ptr, ptr %8, align 8
  %10 = load ptr, ptr %2, align 8
  %11 = getelementptr inbounds %struct.Abc_Obj_t_, ptr %10, i32 0, i32 5
  %12 = getelementptr inbounds %struct.Vec_Int_t_, ptr %11, i32 0, i32 2
  %13 = load ptr, ptr %12, align 8
  %14 = getelementptr inbounds i32, ptr %13, i64 0
  %15 = load i32, ptr %14, align 4
  %16 = sext i32 %15 to i64
  %17 = getelementptr inbounds ptr, ptr %9, i64 %16
  %18 = load ptr, ptr %17, align 8
  ret ptr %18
}

; Function Attrs: nounwind uwtable
define internal ptr @Abc_ObjFanin(ptr noundef %0, i32 noundef %1) #0 {
  %3 = alloca ptr, align 8
  %4 = alloca i32, align 4
  store ptr %0, ptr %3, align 8
  store i32 %1, ptr %4, align 4
  %5 = load ptr, ptr %3, align 8
  %6 = getelementptr inbounds %struct.Abc_Obj_t_, ptr %5, i32 0, i32 0
  %7 = load ptr, ptr %6, align 8
  %8 = getelementptr inbounds %struct.Abc_Ntk_t_, ptr %7, i32 0, i32 5
  %9 = load ptr, ptr %8, align 8
  %10 = getelementptr inbounds %struct.Vec_Ptr_t_, ptr %9, i32 0, i32 2
  %11 = load ptr, ptr %10, align 8
  %12 = load ptr, ptr %3, align 8
  %13 = getelementptr inbounds %struct.Abc_Obj_t_, ptr %12, i32 0, i32 4
  %14 = getelementptr inbounds %struct.Vec_Int_t_, ptr %13, i32 0, i32 2
  %15 = load ptr, ptr %14, align 8
  %16 = load i32, ptr %4, align 4
  %17 = sext i32 %16 to i64
  %18 = getelementptr inbounds i32, ptr %15, i64 %17
  %19 = load i32, ptr %18, align 4
  %20 = sext i32 %19 to i64
  %21 = getelementptr inbounds ptr, ptr %11, i64 %20
  %22 = load ptr, ptr %21, align 8
  ret ptr %22
}

; Function Attrs: nounwind uwtable
define i32 @Io_NtkWriteNodeGate(ptr noundef %0, ptr noundef %1, i32 noundef %2) #0 {
  %4 = alloca i32, align 4
  %5 = alloca ptr, align 8
  %6 = alloca ptr, align 8
  %7 = alloca i32, align 4
  %8 = alloca ptr, align 8
  %9 = alloca ptr, align 8
  %10 = alloca ptr, align 8
  %11 = alloca i32, align 4
  store ptr %0, ptr %5, align 8
  store ptr %1, ptr %6, align 8
  store i32 %2, ptr %7, align 4
  %12 = load ptr, ptr %6, align 8
  %13 = getelementptr inbounds %struct.Abc_Obj_t_, ptr %12, i32 0, i32 6
  %14 = load ptr, ptr %13, align 8
  store ptr %14, ptr %8, align 8
  %15 = load ptr, ptr %5, align 8
  %16 = load i32, ptr %7, align 4
  %17 = load ptr, ptr %8, align 8
  %18 = call ptr @Mio_GateReadName(ptr noundef %17)
  %19 = call i32 (ptr, ptr, ...) @fprintf(ptr noundef %15, ptr noundef @.str.17, i32 noundef %16, ptr noundef %18) #7
  %20 = load ptr, ptr %8, align 8
  %21 = call ptr @Mio_GateReadPins(ptr noundef %20)
  store ptr %21, ptr %9, align 8
  store i32 0, ptr %11, align 4
  br label %22

22:                                               ; preds = %34, %3
  %23 = load ptr, ptr %9, align 8
  %24 = icmp ne ptr %23, null
  br i1 %24, label %25, label %39

25:                                               ; preds = %22
  %26 = load ptr, ptr %5, align 8
  %27 = load ptr, ptr %9, align 8
  %28 = call ptr @Mio_PinReadName(ptr noundef %27)
  %29 = load ptr, ptr %6, align 8
  %30 = load i32, ptr %11, align 4
  %31 = call ptr @Abc_ObjFanin(ptr noundef %29, i32 noundef %30)
  %32 = call ptr @Abc_ObjName(ptr noundef %31)
  %33 = call i32 (ptr, ptr, ...) @fprintf(ptr noundef %26, ptr noundef @.str.18, ptr noundef %28, ptr noundef %32) #7
  br label %34

34:                                               ; preds = %25
  %35 = load ptr, ptr %9, align 8
  %36 = call ptr @Mio_PinReadNext(ptr noundef %35)
  store ptr %36, ptr %9, align 8
  %37 = load i32, ptr %11, align 4
  %38 = add nsw i32 %37, 1
  store i32 %38, ptr %11, align 4
  br label %22, !llvm.loop !11

39:                                               ; preds = %22
  %40 = load ptr, ptr %5, align 8
  %41 = load ptr, ptr %8, align 8
  %42 = call ptr @Mio_GateReadOutName(ptr noundef %41)
  %43 = load ptr, ptr %6, align 8
  %44 = call ptr @Abc_ObjFanout0(ptr noundef %43)
  %45 = call ptr @Abc_ObjName(ptr noundef %44)
  %46 = call i32 (ptr, ptr, ...) @fprintf(ptr noundef %40, ptr noundef @.str.19, ptr noundef %42, ptr noundef %45) #7
  %47 = load ptr, ptr %8, align 8
  %48 = call ptr @Mio_GateReadTwin(ptr noundef %47)
  %49 = icmp eq ptr %48, null
  br i1 %49, label %50, label %51

50:                                               ; preds = %39
  store i32 0, ptr %4, align 4
  br label %74

51:                                               ; preds = %39
  %52 = load ptr, ptr %6, align 8
  %53 = call ptr @Abc_NtkFetchTwinNode(ptr noundef %52)
  store ptr %53, ptr %10, align 8
  %54 = load ptr, ptr %10, align 8
  %55 = icmp eq ptr %54, null
  br i1 %55, label %56, label %64

56:                                               ; preds = %51
  %57 = load i32, ptr @Io_NtkWriteNodeGate.fReport, align 4
  %58 = icmp ne i32 %57, 0
  br i1 %58, label %63, label %59

59:                                               ; preds = %56
  store i32 1, ptr @Io_NtkWriteNodeGate.fReport, align 4
  %60 = load ptr, ptr %8, align 8
  %61 = call ptr @Mio_GateReadName(ptr noundef %60)
  %62 = call i32 (ptr, ...) @printf(ptr noundef @.str.20, ptr noundef %61)
  br label %63

63:                                               ; preds = %59, %56
  store i32 0, ptr %4, align 4
  br label %74

64:                                               ; preds = %51
  %65 = load ptr, ptr %5, align 8
  %66 = load ptr, ptr %10, align 8
  %67 = getelementptr inbounds %struct.Abc_Obj_t_, ptr %66, i32 0, i32 6
  %68 = load ptr, ptr %67, align 8
  %69 = call ptr @Mio_GateReadOutName(ptr noundef %68)
  %70 = load ptr, ptr %10, align 8
  %71 = call ptr @Abc_ObjFanout0(ptr noundef %70)
  %72 = call ptr @Abc_ObjName(ptr noundef %71)
  %73 = call i32 (ptr, ptr, ...) @fprintf(ptr noundef %65, ptr noundef @.str.21, ptr noundef %69, ptr noundef %72) #7
  store i32 1, ptr %4, align 4
  br label %74

74:                                               ; preds = %64, %63, %50
  %75 = load i32, ptr %4, align 4
  ret i32 %75
}