; Function Attrs: nounwind uwtable
define range(i32 0, 2) i32 @Io_NtkWriteNodeGate(ptr noundef captures(none) %0, ptr noundef %1, i32 noundef %2) local_unnamed_addr #0 {
  %4 = getelementptr inbounds nuw i8, ptr %1, i64 56
  %5 = load ptr, ptr %4, align 8
  %6 = tail call ptr @Mio_GateReadName(ptr noundef %5) #10
  %7 = tail call i32 (ptr, ptr, ...) @fprintf(ptr noundef %0, ptr noundef nonnull @.str.17, i32 noundef %2, ptr noundef %6) #10
  %8 = tail call ptr @Mio_GateReadPins(ptr noundef %5) #10
  %.not30 = icmp eq ptr %8, null
  br i1 %.not30, label %._crit_edge, label %.lr.ph

.lr.ph:                                           ; preds = %3
  %9 = getelementptr i8, ptr %1, i64 32
  br label %10

10:                                               ; preds = %.lr.ph, %10
  %indvars.iv = phi i64 [ 0, %.lr.ph ], [ %indvars.iv.next, %10 ]
  %.02331 = phi ptr [ %8, %.lr.ph ], [ %21, %10 ]
  %11 = tail call ptr @Mio_PinReadName(ptr noundef nonnull %.02331) #10
  %.val28 = load ptr, ptr %1, align 8
  %.val29 = load ptr, ptr %9, align 8
  %12 = getelementptr i8, ptr %.val28, i64 32
  %.val28.val = load ptr, ptr %12, align 8
  %13 = getelementptr i8, ptr %.val28.val, i64 8
  %.val28.val.val = load ptr, ptr %13, align 8
  %14 = getelementptr inbounds nuw i32, ptr %.val29, i64 %indvars.iv
  %15 = load i32, ptr %14, align 4
  %16 = sext i32 %15 to i64
  %17 = getelementptr inbounds ptr, ptr %.val28.val.val, i64 %16
  %18 = load ptr, ptr %17, align 8
  %19 = tail call ptr @Abc_ObjName(ptr noundef %18) #10
  %20 = tail call i32 (ptr, ptr, ...) @fprintf(ptr noundef %0, ptr noundef nonnull @.str.18, ptr noundef %11, ptr noundef %19) #10
  %21 = tail call ptr @Mio_PinReadNext(ptr noundef nonnull %.02331) #10
  %indvars.iv.next = add nuw nsw i64 %indvars.iv, 1
  %.not = icmp eq ptr %21, null
  br i1 %.not, label %._crit_edge, label %10, !llvm.loop !11

._crit_edge:                                      ; preds = %10, %3
  %22 = tail call ptr @Mio_GateReadOutName(ptr noundef %5) #10
  %.val26 = load ptr, ptr %1, align 8
  %23 = getelementptr i8, ptr %1, i64 48
  %.val27 = load ptr, ptr %23, align 8
  %24 = getelementptr i8, ptr %.val26, i64 32
  %.val26.val = load ptr, ptr %24, align 8
  %.val27.val = load i32, ptr %.val27, align 4
  %25 = getelementptr i8, ptr %.val26.val, i64 8
  %.val26.val.val = load ptr, ptr %25, align 8
  %26 = sext i32 %.val27.val to i64
  %27 = getelementptr inbounds ptr, ptr %.val26.val.val, i64 %26
  %28 = load ptr, ptr %27, align 8
  %29 = tail call ptr @Abc_ObjName(ptr noundef %28) #10
  %30 = tail call i32 (ptr, ptr, ...) @fprintf(ptr noundef %0, ptr noundef nonnull @.str.19, ptr noundef %22, ptr noundef %29) #10
  %31 = tail call ptr @Mio_GateReadTwin(ptr noundef %5) #10
  %32 = icmp eq ptr %31, null
  br i1 %32, label %52, label %33

33:                                               ; preds = %._crit_edge
  %34 = tail call ptr @Abc_NtkFetchTwinNode(ptr noundef nonnull %1) #10
  %35 = icmp eq ptr %34, null
  br i1 %35, label %36, label %40

36:                                               ; preds = %33
  %.b = load i1, ptr @Io_NtkWriteNodeGate.fReport, align 4
  br i1 %.b, label %52, label %37

37:                                               ; preds = %36
  store i1 true, ptr @Io_NtkWriteNodeGate.fReport, align 4
  %38 = tail call ptr @Mio_GateReadName(ptr noundef %5) #10
  %39 = tail call i32 (ptr, ...) @printf(ptr noundef nonnull dereferenceable(1) @.str.20, ptr noundef %38)
  br label %52

40:                                               ; preds = %33
  %41 = getelementptr inbounds nuw i8, ptr %34, i64 56
  %42 = load ptr, ptr %41, align 8
  %43 = tail call ptr @Mio_GateReadOutName(ptr noundef %42) #10
  %.val = load ptr, ptr %34, align 8
  %44 = getelementptr i8, ptr %34, i64 48
  %.val25 = load ptr, ptr %44, align 8
  %45 = getelementptr i8, ptr %.val, i64 32
  %.val.val = load ptr, ptr %45, align 8
  %.val25.val = load i32, ptr %.val25, align 4
  %46 = getelementptr i8, ptr %.val.val, i64 8
  %.val.val.val = load ptr, ptr %46, align 8
  %47 = sext i32 %.val25.val to i64
  %48 = getelementptr inbounds ptr, ptr %.val.val.val, i64 %47
  %49 = load ptr, ptr %48, align 8
  %50 = tail call ptr @Abc_ObjName(ptr noundef %49) #10
  %51 = tail call i32 (ptr, ptr, ...) @fprintf(ptr noundef %0, ptr noundef nonnull @.str.21, ptr noundef %43, ptr noundef %50) #10
  br label %52

52:                                               ; preds = %36, %37, %._crit_edge, %40
  %.022 = phi i32 [ 1, %40 ], [ 0, %._crit_edge ], [ 0, %37 ], [ 0, %36 ]
  ret i32 %.022
}